target datalayout = "e-m:e-p270:32:32-p271:32:32-p272:64:64-i64:64-i128:128-f80:128-n8:16:32:64-S128"
target triple = "x86_64-unknown-linux-gnu"

; Function Attrs: mustprogress uwtable
define dso_local void @_ZN3net21QuicClientSessionBase13ResetPromisedEjNS_22QuicRstStreamErrorCodeE(ptr noundef nonnull align 8 dereferenceable(2140) %this, i32 noundef %id, i32 noundef %error_code) #0 align 2 {
entry:
  %this.addr = alloca ptr, align 8
  %id.addr = alloca i32, align 4
  %error_code.addr = alloca i32, align 4
  store ptr %this, ptr %this.addr, align 8
  store i32 %id, ptr %id.addr, align 4
  store i32 %error_code, ptr %error_code.addr, align 4
  %this1 = load ptr, ptr %this.addr, align 8
  %0 = load i32, ptr %id.addr, align 4
  %1 = load i32, ptr %error_code.addr, align 4
  %vtable = load ptr, ptr %this1, align 8
  %vfn = getelementptr inbounds ptr, ptr %vtable, i64 21
  %2 = load ptr, ptr %vfn, align 8
  call void %2(ptr noundef nonnull align 8 dereferenceable(2044) %this1, i32 noundef %0, i32 noundef %1, i64 noundef 0)
  %3 = load i32, ptr %id.addr, align 4
  %call = call noundef zeroext i1 @_ZN3net11QuicSession12IsOpenStreamEj(ptr noundef nonnull align 8 dereferenceable(2044) %this1, i32 noundef %3)
  br i1 %call, label %if.end, label %if.then

if.then:                                          ; preds = %entry
  %4 = load i32, ptr %id.addr, align 4
  %call2 = call noundef zeroext i1 @_ZN3net11QuicSession32MaybeIncreaseLargestPeerStreamIdEj(ptr noundef nonnull align 8 dereferenceable(2044) %this1, i32 noundef %4)
  %5 = load i32, ptr %id.addr, align 4
  call void @_ZN3net11QuicSession39InsertLocallyClosedStreamsHighestOffsetEjm(ptr noundef nonnull align 8 dereferenceable(2044) %this1, i32 noundef %5, i64 noundef 0)
  br label %if.end

if.end:                                           ; preds = %if.then, %entry
  ret void
}