; Function Attrs: mustprogress uwtable
define dso_local void @_ZN3net21QuicClientSessionBase13ResetPromisedEjNS_22QuicRstStreamErrorCodeE(ptr noundef nonnull align 8 dereferenceable(2140) %this, i32 noundef %id, i32 noundef %error_code) local_unnamed_addr #0 align 2 {
entry:
  %vtable = load ptr, ptr %this, align 8
  %vfn = getelementptr inbounds i8, ptr %vtable, i64 168
  %0 = load ptr, ptr %vfn, align 8
  tail call void %0(ptr noundef nonnull align 8 dereferenceable(2044) %this, i32 noundef %id, i32 noundef %error_code, i64 noundef 0)
  %call = tail call noundef zeroext i1 @_ZN3net11QuicSession12IsOpenStreamEj(ptr noundef nonnull align 8 dereferenceable(2044) %this, i32 noundef %id)
  br i1 %call, label %if.end, label %if.then

if.then:                                          ; preds = %entry
  %call2 = tail call noundef zeroext i1 @_ZN3net11QuicSession32MaybeIncreaseLargestPeerStreamIdEj(ptr noundef nonnull align 8 dereferenceable(2044) %this, i32 noundef %id)
  tail call void @_ZN3net11QuicSession39InsertLocallyClosedStreamsHighestOffsetEjm(ptr noundef nonnull align 8 dereferenceable(2044) %this, i32 noundef %id, i64 noundef 0)
  br label %if.end

if.end:                                           ; preds = %if.then, %entry
  ret void
}